target datalayout = "e-m:e-p270:32:32-p271:32:32-p272:64:64-i64:64-i128:128-f80:128-n8:16:32:64-S128"
target triple = "x86_64-unknown-linux-gnu"

%"struct.std::atomic.4" = type { %"struct.std::__atomic_base.5" }
%"struct.std::__atomic_base.5" = type { i8 }
%struct.grpc_slice_buffer = type { ptr, ptr, i64, i64, i64, [7 x %struct.grpc_slice] }
%struct.grpc_slice = type { ptr, %"union.grpc_slice::grpc_slice_data" }
%"union.grpc_slice::grpc_slice_data" = type { %"struct.grpc_slice::grpc_slice_data::grpc_slice_refcounted", [8 x i8] }
%"struct.grpc_slice::grpc_slice_data::grpc_slice_refcounted" = type { i64, ptr }
%"struct.std::atomic" = type { %"struct.std::__atomic_base" }
%"struct.std::__atomic_base" = type { i64 }
%"class.std::__cxx11::basic_string" = type { %"struct.std::__cxx11::basic_string<char>::_Alloc_hider", i64, %union.anon.3 }
%"struct.std::__cxx11::basic_string<char>::_Alloc_hider" = type { ptr }
%union.anon.3 = type { i64, [8 x i8] }
%"class.grpc_core::MemoryOwner" = type { %"class.grpc_event_engine::experimental::MemoryAllocator" }
%"class.grpc_event_engine::experimental::MemoryAllocator" = type { %"class.std::shared_ptr" }
%"class.std::shared_ptr" = type { %"class.std::__shared_ptr" }
%"class.std::__shared_ptr" = type { ptr, %"class.std::__shared_count" }
%"class.std::__shared_count" = type { ptr }
%"class.grpc_event_engine::experimental::MemoryAllocator::Reservation" = type { %"class.std::shared_ptr", i64 }
%"struct.(anonymous namespace)::grpc_tcp" = type <{ %struct.grpc_endpoint, ptr, i32, i32, double, double, %"class.grpc_core::RefCount", i64, i32, i32, %struct.grpc_slice_buffer, %"class.absl::lts_20230802::Mutex", ptr, ptr, i64, ptr, ptr, ptr, ptr, %struct.grpc_closure, %struct.grpc_closure, %struct.grpc_closure, %"class.std::__cxx11::basic_string", %"class.std::__cxx11::basic_string", %"class.grpc_core::MemoryOwner", %"class.grpc_event_engine::experimental::MemoryAllocator::Reservation", %"class.grpc_core::TracedBufferList", ptr, i32, i32, i64, %"class.grpc_core::TcpZerocopySendCtx", ptr, i32, i8, i8, i8, i8, i8, [7 x i8] }>
%struct.grpc_endpoint = type { ptr }
%"class.grpc_core::RefCount" = type { %"struct.std::atomic" }
%"class.absl::lts_20230802::Mutex" = type { %"struct.std::atomic" }
%struct.grpc_closure = type { %union.anon, ptr, ptr, %union.anon.2 }
%union.anon = type { ptr }
%union.anon.2 = type { i64 }
%"class.grpc_core::TracedBufferList" = type { %"class.absl::lts_20230802::Mutex", ptr, ptr }
%"class.grpc_core::TcpZerocopySendCtx" = type <{ ptr, ptr, i32, i32, %"class.absl::lts_20230802::Mutex", i32, %"struct.std::atomic.4", i8, [2 x i8], i64, %"class.std::unordered_map", i8, i8, i8, [5 x i8] }>
%"class.std::unordered_map" = type { %"class.std::_Hashtable" }
%"class.std::_Hashtable" = type { ptr, i64, %"struct.std::__detail::_Hash_node_base", i64, %"struct.std::__detail::_Prime_rehash_policy", ptr }
%"struct.std::__detail::_Hash_node_base" = type { ptr }
%"struct.std::__detail::_Prime_rehash_policy" = type { float, i64 }
%struct.sockaddr = type { i16, [14 x i8] }

; Function Attrs: mustprogress uwtable
define internal noundef zeroext i1 @_ZL17tcp_can_track_errP13grpc_endpoint(ptr noundef %ep) #4 {
entry:
  %retval = alloca i1, align 1
  %ep.addr = alloca ptr, align 8
  %tcp = alloca ptr, align 8
  %addr = alloca %struct.sockaddr, align 2
  %len = alloca i32, align 4
  store ptr %ep, ptr %ep.addr, align 8
  %0 = load ptr, ptr %ep.addr, align 8
  store ptr %0, ptr %tcp, align 8
  %call = call noundef zeroext i1 @_Z34grpc_event_engine_can_track_errorsv()
  br i1 %call, label %if.end, label %if.then

if.then:                                          ; preds = %entry
  store i1 false, ptr %retval, align 1
  br label %return

if.end:                                           ; preds = %entry
  store i32 16, ptr %len, align 4
  %1 = load ptr, ptr %tcp, align 8
  %fd = getelementptr inbounds %"struct.(anonymous namespace)::grpc_tcp", ptr %1, i32 0, i32 2
  %2 = load i32, ptr %fd, align 8
  %call1 = call i32 @getsockname(i32 noundef %2, ptr noundef %addr, ptr noundef %len) #3
  %cmp = icmp slt i32 %call1, 0
  br i1 %cmp, label %if.then2, label %if.end3

if.then2:                                         ; preds = %if.end
  store i1 false, ptr %retval, align 1
  br label %return

if.end3:                                          ; preds = %if.end
  %sa_family = getelementptr inbounds %struct.sockaddr, ptr %addr, i32 0, i32 0
  %3 = load i16, ptr %sa_family, align 2
  %conv = zext i16 %3 to i32
  %cmp4 = icmp eq i32 %conv, 2
  br i1 %cmp4, label %lor.end, label %lor.rhs

lor.rhs:                                          ; preds = %if.end3
  %sa_family5 = getelementptr inbounds %struct.sockaddr, ptr %addr, i32 0, i32 0
  %4 = load i16, ptr %sa_family5, align 2
  %conv6 = zext i16 %4 to i32
  %cmp7 = icmp eq i32 %conv6, 10
  br label %lor.end

lor.end:                                          ; preds = %lor.rhs, %if.end3
  %5 = phi i1 [ true, %if.end3 ], [ %cmp7, %lor.rhs ]
  store i1 %5, ptr %retval, align 1
  br label %return

return:                                           ; preds = %lor.end, %if.then2, %if.then
  %6 = load i1, ptr %retval, align 1
  ret i1 %6
}