; Function Attrs: mustprogress uwtable
define internal noundef zeroext i1 @_ZL17tcp_can_track_errP13grpc_endpoint(ptr nocapture noundef readonly %ep) #6 {
entry:
  %addr = alloca %struct.sockaddr, align 2
  %len = alloca i32, align 4
  %call = tail call noundef zeroext i1 @_Z34grpc_event_engine_can_track_errorsv()
  br i1 %call, label %if.end, label %return

if.end:                                           ; preds = %entry
  store i32 16, ptr %len, align 4
  %fd = getelementptr inbounds i8, ptr %ep, i64 16
  %0 = load i32, ptr %fd, align 8
  %call1 = call i32 @getsockname(i32 noundef %0, ptr noundef nonnull %addr, ptr noundef nonnull %len) #24
  %cmp = icmp slt i32 %call1, 0
  br i1 %cmp, label %return, label %if.end3

if.end3:                                          ; preds = %if.end
  %1 = load i16, ptr %addr, align 2
  %2 = and i16 %1, -9
  %3 = icmp eq i16 %2, 2
  br label %return

return:                                           ; preds = %if.end, %entry, %if.end3
  %retval.0 = phi i1 [ %3, %if.end3 ], [ false, %entry ], [ false, %if.end ]
  ret i1 %retval.0
}